target datalayout = "e-m:e-p270:32:32-p271:32:32-p272:64:64-i64:64-i128:128-f80:128-n8:16:32:64-S128"
target triple = "x86_64-pc-linux-gnu"

%struct.SDL_Property = type { i32, %union.anon, ptr, ptr, ptr }
%union.anon = type { ptr }

; Function Attrs: nounwind uwtable
define hidden zeroext i1 @SDL_ClearProperty_REAL(i32 noundef %0, ptr noundef %1) #0 {
  %3 = alloca i32, align 4
  %4 = alloca ptr, align 8
  store i32 %0, ptr %3, align 4
  store ptr %1, ptr %4, align 8
  %5 = load i32, ptr %3, align 4
  %6 = load ptr, ptr %4, align 8
  %7 = call zeroext i1 @SDL_PrivateSetProperty(i32 noundef %5, ptr noundef %6, ptr noundef null)
  ret i1 %7
}

; Function Attrs: nounwind uwtable
define hidden zeroext i1 @SDL_SetPointerProperty_REAL(i32 noundef %0, ptr noundef %1, ptr noundef %2) #0 {
  %4 = alloca i1, align 1
  %5 = alloca i32, align 4
  %6 = alloca ptr, align 8
  %7 = alloca ptr, align 8
  %8 = alloca ptr, align 8
  %9 = alloca i32, align 4
  store i32 %0, ptr %5, align 4
  store ptr %1, ptr %6, align 8
  store ptr %2, ptr %7, align 8
  call void @llvm.lifetime.start.p0(i64 8, ptr %8) #6
  %10 = load ptr, ptr %7, align 8
  %11 = icmp ne ptr %10, null
  br i1 %11, label %16, label %12

12:                                               ; preds = %3
  %13 = load i32, ptr %5, align 4
  %14 = load ptr, ptr %6, align 8
  %15 = call zeroext i1 @SDL_ClearProperty_REAL(i32 noundef %13, ptr noundef %14)
  store i1 %15, ptr %4, align 1
  store i32 1, ptr %9, align 4
  br label %31

16:                                               ; preds = %3
  %17 = call noalias ptr @SDL_calloc_REAL(i64 noundef 1, i64 noundef 40) #7
  store ptr %17, ptr %8, align 8
  %18 = load ptr, ptr %8, align 8
  %19 = icmp ne ptr %18, null
  br i1 %19, label %21, label %20

20:                                               ; preds = %16
  store i1 false, ptr %4, align 1
  store i32 1, ptr %9, align 4
  br label %31

21:                                               ; preds = %16
  %22 = load ptr, ptr %8, align 8
  %23 = getelementptr inbounds nuw %struct.SDL_Property, ptr %22, i32 0, i32 0
  store i32 1, ptr %23, align 8
  %24 = load ptr, ptr %7, align 8
  %25 = load ptr, ptr %8, align 8
  %26 = getelementptr inbounds nuw %struct.SDL_Property, ptr %25, i32 0, i32 1
  store ptr %24, ptr %26, align 8
  %27 = load i32, ptr %5, align 4
  %28 = load ptr, ptr %6, align 8
  %29 = load ptr, ptr %8, align 8
  %30 = call zeroext i1 @SDL_PrivateSetProperty(i32 noundef %27, ptr noundef %28, ptr noundef %29)
  store i1 %30, ptr %4, align 1
  store i32 1, ptr %9, align 4
  br label %31

31:                                               ; preds = %21, %20, %12
  call void @llvm.lifetime.end.p0(i64 8, ptr %8) #6
  %32 = load i1, ptr %4, align 1
  ret i1 %32
}