; Function Attrs: nounwind uwtable
define hidden zeroext i1 @SDL_SetPointerProperty_REAL(i32 noundef %0, ptr noundef %1, ptr noundef %2) local_unnamed_addr #0 {
  %.not = icmp eq ptr %2, null
  br i1 %.not, label %.sink.split, label %4

4:                                                ; preds = %3
  %5 = tail call noalias dereferenceable_or_null(40) ptr @SDL_calloc_REAL(i64 noundef 1, i64 noundef 40) #7
  %.not12 = icmp eq ptr %5, null
  br i1 %.not12, label %9, label %6

6:                                                ; preds = %4
  store i32 1, ptr %5, align 8
  %7 = getelementptr inbounds nuw i8, ptr %5, i64 8
  store ptr %2, ptr %7, align 8
  br label %.sink.split

.sink.split:                                      ; preds = %3, %6
  %.sink = phi ptr [ %5, %6 ], [ null, %3 ]
  %8 = tail call fastcc zeroext i1 @SDL_PrivateSetProperty(i32 noundef %0, ptr noundef %1, ptr noundef %.sink)
  br label %9

9:                                                ; preds = %.sink.split, %4
  %.0 = phi i1 [ false, %4 ], [ %8, %.sink.split ]
  ret i1 %.0
}